; Function Attrs: mustprogress nofree norecurse nosync nounwind willreturn memory(read, inaccessiblemem: none) uwtable
define range(i32 0, 2) i32 @Fraig_NodeIsAnd(ptr noundef %0) local_unnamed_addr #1 {
  %2 = ptrtoint ptr %0 to i64
  %3 = and i64 %2, -2
  %4 = inttoptr i64 %3 to ptr
  %5 = getelementptr inbounds nuw i8, ptr %4, i64 4
  %6 = load i32, ptr %5, align 4, !tbaa !54
  %7 = icmp slt i32 %6, 0
  br i1 %7, label %8, label %12

8:                                                ; preds = %1
  %9 = load i32, ptr %4, align 8, !tbaa !46
  %10 = icmp sgt i32 %9, 0
  %11 = zext i1 %10 to i32
  br label %12

12:                                               ; preds = %8, %1
  %13 = phi i32 [ 0, %1 ], [ %11, %8 ]
  ret i32 %13
}